ccopy_reg
_reconstructor
p0
(cgoogle.oauth2.credentials
Credentials
p1
c__builtin__
object
p2
Ntp3
Rp4
(dp5
S'_token_uri'
p6
Vhttps://oauth2.googleapis.com/token
p7
sS'_scopes'
p8
(lp9
S'https://www.googleapis.com/auth/drive.metadata.readonly'
p10
asS'_id_token'
p11
NsS'token'
p12
Vya29.Gls3B-C_Mgs00P9GNPrU7-IaSnCxMqS64HXl0W52cWFnfamSqEW7j-pKistOChKTGNQ-9nP9CVMo8pUdVgJTHzlETkaFEBnSMTE5A74sEmCOJm_0A7EK9qLrZR6h
p13
sS'_refresh_token'
p14
V1/GZiZGYOD-4fIT_-L1OcVD_MR_fRUpiXaCavI5HaEDhE
p15
sS'_client_secret'
p16
VKYV14IR9UylIOO1BsyTW4WqV
p17
sS'_client_id'
p18
V604022961593-qsbv6kodjqc6ad1h99138aoa8cl6qfm1.apps.googleusercontent.com
p19
sS'expiry'
p20
cdatetime
datetime
p21
(S'\x07\xe3\x06\x1e\x15\x19\x02\x0b\xb4\xd2'
p22
tp23
Rp24
sb.