ccopy_reg
_reconstructor
p0
(cgoogle.oauth2.credentials
Credentials
p1
c__builtin__
object
p2
Ntp3
Rp4
(dp5
S'_token_uri'
p6
Vhttps://oauth2.googleapis.com/token
p7
sS'_client_secret'
p8
VKYV14IR9UylIOO1BsyTW4WqV
p9
sS'_id_token'
p10
NsS'token'
p11
Vya29.Gls4B61hPXX0jx9FCDywx9i2qymJlCbhXfceLbLZAeY3yJ_opjnlOxoBUWUwnBqhRP-kA03T9qATFV3ZyeAgTR04V3SUPbMHyaIry8CUdFl1XO5QTi0g_DXQ26Rc
p12
sS'_refresh_token'
p13
V1/ivRkUooUx_JebQtMN74fQYwL7IGucwyHZRXfXeP1l8qcW7pxKv3wOicxqPu01oYX
p14
sS'_scopes'
p15
(lp16
S'https://www.googleapis.com/auth/drive.readonly'
p17
asS'_client_id'
p18
V604022961593-qsbv6kodjqc6ad1h99138aoa8cl6qfm1.apps.googleusercontent.com
p19
sS'expiry'
p20
cdatetime
datetime
p21
(S'\x07\xe3\x06\x1e\x159\x07\x0b\xb0v'
p22
tp23
Rp24
sb.